target datalayout = "e-m:e-p270:32:32-p271:32:32-p272:64:64-i64:64-i128:128-f80:128-n8:16:32:64-S128"
target triple = "x86_64-pc-linux-gnu"

@.str.1 = private unnamed_addr constant [13 x i8] c"script_lua.c\00", align 1
@.str.105 = private unnamed_addr constant [52 x i8] c"lua stack limit reach when parsing redis.call reply\00", align 1

; Function Attrs: nounwind uwtable
define internal void @redisProtocolToLuaType_Int(ptr noundef %0, i64 noundef %1, ptr noundef %2, i64 noundef %3) #0 {
  %5 = alloca ptr, align 8
  %6 = alloca i64, align 8
  %7 = alloca ptr, align 8
  %8 = alloca i64, align 8
  %9 = alloca ptr, align 8
  store ptr %0, ptr %5, align 8, !tbaa !12
  store i64 %1, ptr %6, align 8, !tbaa !117
  store ptr %2, ptr %7, align 8, !tbaa !10
  store i64 %3, ptr %8, align 8, !tbaa !23
  %10 = load ptr, ptr %5, align 8, !tbaa !12
  %11 = icmp ne ptr %10, null
  br i1 %11, label %13, label %12

12:                                               ; preds = %4
  br label %23

13:                                               ; preds = %4
  call void @llvm.lifetime.start.p0(i64 8, ptr %9) #12
  %14 = load ptr, ptr %5, align 8, !tbaa !12
  store ptr %14, ptr %9, align 8, !tbaa !5
  %15 = load ptr, ptr %9, align 8, !tbaa !5
  %16 = call i32 @lua_checkstack(ptr noundef %15, i32 noundef 1)
  %17 = icmp ne i32 %16, 0
  br i1 %17, label %19, label %18

18:                                               ; preds = %13
  call void (ptr, i32, ptr, ...) @_serverPanic(ptr noundef @.str.1, i32 noundef 229, ptr noundef @.str.105)
  call void @abort() #11
  unreachable

19:                                               ; preds = %13
  %20 = load ptr, ptr %9, align 8, !tbaa !5
  %21 = load i64, ptr %6, align 8, !tbaa !117
  %22 = sitofp i64 %21 to double
  call void @lua_pushnumber(ptr noundef %20, double noundef %22)
  call void @llvm.lifetime.end.p0(i64 8, ptr %9) #12
  br label %23

23:                                               ; preds = %19, %12
  ret void
}